target datalayout = "e-m:e-p270:32:32-p271:32:32-p272:64:64-i64:64-i128:128-f80:128-n8:16:32:64-S128"
target triple = "x86_64-pc-linux-gnu"

%struct.timeval = type { i64, i64 }
%struct.fd_set = type { [16 x i64] }

@ghba_chan = internal global ptr null, align 8
@stderr = external global ptr, align 8
@.str.53 = private unnamed_addr constant [47 x i8] c"Warning: call to select() failed, error is %s\0A\00", align 1

; Function Attrs: null_pointer_is_valid sspstrong uwtable
define internal void @wait_for_sync_resolv(ptr noundef %0) #3 {
  %2 = alloca ptr, align 8
  %3 = alloca i32, align 4
  %4 = alloca %struct.fd_set, align 8
  %5 = alloca %struct.fd_set, align 8
  %6 = alloca %struct.timeval, align 8
  %7 = alloca i32, align 4
  %8 = alloca ptr, align 8
  %9 = alloca i32, align 4
  %10 = alloca ptr, align 8
  %11 = alloca i32, align 4
  store ptr %0, ptr %2, align 8
  call void @llvm.lifetime.start.p0(i64 4, ptr %3) #16
  call void @llvm.lifetime.start.p0(i64 128, ptr %4) #16
  call void @llvm.lifetime.start.p0(i64 128, ptr %5) #16
  call void @llvm.lifetime.start.p0(i64 16, ptr %6) #16
  br label %12

12:                                               ; preds = %75, %1
  %13 = load ptr, ptr %2, align 8
  %14 = load i8, ptr %13, align 1, !range !8, !noundef !9
  %15 = trunc i8 %14 to i1
  %16 = xor i1 %15, true
  br i1 %16, label %17, label %76

17:                                               ; preds = %12
  %18 = getelementptr inbounds nuw %struct.timeval, ptr %6, i32 0, i32 0
  store i64 1, ptr %18, align 8
  %19 = getelementptr inbounds nuw %struct.timeval, ptr %6, i32 0, i32 1
  store i64 0, ptr %19, align 8
  br label %20

20:                                               ; preds = %17
  call void @llvm.lifetime.start.p0(i64 4, ptr %7) #16
  call void @llvm.lifetime.start.p0(i64 8, ptr %8) #16
  store ptr %4, ptr %8, align 8
  store i32 0, ptr %7, align 4
  br label %21

21:                                               ; preds = %31, %20
  %22 = load i32, ptr %7, align 4
  %23 = zext i32 %22 to i64
  %24 = icmp ult i64 %23, 16
  br i1 %24, label %25, label %34

25:                                               ; preds = %21
  %26 = load ptr, ptr %8, align 8
  %27 = getelementptr inbounds nuw %struct.fd_set, ptr %26, i32 0, i32 0
  %28 = load i32, ptr %7, align 4
  %29 = zext i32 %28 to i64
  %30 = getelementptr [16 x i64], ptr %27, i64 0, i64 %29
  store i64 0, ptr %30, align 8
  br label %31

31:                                               ; preds = %25
  %32 = load i32, ptr %7, align 4
  %33 = add i32 %32, 1
  store i32 %33, ptr %7, align 4
  br label %21, !llvm.loop !40

34:                                               ; preds = %21
  call void @llvm.lifetime.end.p0(i64 8, ptr %8) #16
  call void @llvm.lifetime.end.p0(i64 4, ptr %7) #16
  br label %35

35:                                               ; preds = %34
  br label %36

36:                                               ; preds = %35
  br label %37

37:                                               ; preds = %36
  call void @llvm.lifetime.start.p0(i64 4, ptr %9) #16
  call void @llvm.lifetime.start.p0(i64 8, ptr %10) #16
  store ptr %5, ptr %10, align 8
  store i32 0, ptr %9, align 4
  br label %38

38:                                               ; preds = %48, %37
  %39 = load i32, ptr %9, align 4
  %40 = zext i32 %39 to i64
  %41 = icmp ult i64 %40, 16
  br i1 %41, label %42, label %51

42:                                               ; preds = %38
  %43 = load ptr, ptr %10, align 8
  %44 = getelementptr inbounds nuw %struct.fd_set, ptr %43, i32 0, i32 0
  %45 = load i32, ptr %9, align 4
  %46 = zext i32 %45 to i64
  %47 = getelementptr [16 x i64], ptr %44, i64 0, i64 %46
  store i64 0, ptr %47, align 8
  br label %48

48:                                               ; preds = %42
  %49 = load i32, ptr %9, align 4
  %50 = add i32 %49, 1
  store i32 %50, ptr %9, align 4
  br label %38, !llvm.loop !41

51:                                               ; preds = %38
  call void @llvm.lifetime.end.p0(i64 8, ptr %10) #16
  call void @llvm.lifetime.end.p0(i64 4, ptr %9) #16
  br label %52

52:                                               ; preds = %51
  br label %53

53:                                               ; preds = %52
  %54 = load ptr, ptr @ghba_chan, align 8
  %55 = call i32 @ares_fds(ptr noundef %54, ptr noundef %4, ptr noundef %5)
  store i32 %55, ptr %3, align 4
  %56 = load i32, ptr %3, align 4
  %57 = icmp sgt i32 %56, 0
  br i1 %57, label %58, label %75

58:                                               ; preds = %53
  %59 = load i32, ptr %3, align 4
  %60 = call i32 @select(i32 noundef %59, ptr noundef %4, ptr noundef %5, ptr noundef null, ptr noundef %6)
  %61 = icmp eq i32 %60, -1
  br i1 %61, label %62, label %73

62:                                               ; preds = %58
  %63 = call ptr @__errno_location() #18
  %64 = load i32, ptr %63, align 4
  %65 = icmp ne i32 %64, 4
  br i1 %65, label %66, label %72

66:                                               ; preds = %62
  %67 = load ptr, ptr @stderr, align 8
  %68 = call ptr @__errno_location() #18
  %69 = load i32, ptr %68, align 4
  %70 = call ptr @g_strerror(i32 noundef %69) #18
  %71 = call i32 (ptr, i32, ptr, ...) @__fprintf_chk(ptr noundef %67, i32 noundef 2, ptr noundef @.str.53, ptr noundef %70)
  br label %72

72:                                               ; preds = %66, %62
  store i32 1, ptr %11, align 4
  br label %77

73:                                               ; preds = %58
  %74 = load ptr, ptr @ghba_chan, align 8
  call void @ares_process(ptr noundef %74, ptr noundef %4, ptr noundef %5)
  br label %75

75:                                               ; preds = %73, %53
  br label %12, !llvm.loop !42

76:                                               ; preds = %12
  store i32 0, ptr %11, align 4
  br label %77

77:                                               ; preds = %76, %72
  call void @llvm.lifetime.end.p0(i64 16, ptr %6) #16
  call void @llvm.lifetime.end.p0(i64 128, ptr %5) #16
  call void @llvm.lifetime.end.p0(i64 128, ptr %4) #16
  call void @llvm.lifetime.end.p0(i64 4, ptr %3) #16
  %78 = load i32, ptr %11, align 4
  switch i32 %78, label %80 [
    i32 0, label %79
    i32 1, label %79
  ]

79:                                               ; preds = %77, %77
  ret void

80:                                               ; preds = %77
  unreachable
}