; Function Attrs: null_pointer_is_valid sspstrong uwtable
define internal fastcc void @wait_for_sync_resolv(ptr noundef readonly captures(none) %0) unnamed_addr #3 {
  %2 = alloca %struct.fd_set, align 8
  %3 = alloca %struct.fd_set, align 8
  %4 = alloca %struct.timeval, align 8
  call void @llvm.lifetime.start.p0(i64 128, ptr nonnull %2) #24
  call void @llvm.lifetime.start.p0(i64 128, ptr nonnull %3) #24
  call void @llvm.lifetime.start.p0(i64 16, ptr nonnull %4) #24
  %5 = load i8, ptr %0, align 1, !range !16, !noundef !17
  %6 = trunc nuw i8 %5 to i1
  br i1 %6, label %.loopexit, label %.lr.ph

.lr.ph:                                           ; preds = %1
  %7 = getelementptr inbounds nuw i8, ptr %4, i64 8
  br label %.preheader.preheader

.preheader.preheader:                             ; preds = %.lr.ph, %23
  store i64 1, ptr %4, align 8
  store i64 0, ptr %7, align 8
  call void @llvm.memset.p0.i64(ptr noundef nonnull align 8 dereferenceable(128) %2, i8 0, i64 128, i1 false)
  call void @llvm.memset.p0.i64(ptr noundef nonnull align 8 dereferenceable(128) %3, i8 0, i64 128, i1 false)
  %8 = load ptr, ptr @ghba_chan, align 8
  %9 = call i32 @ares_fds(ptr noundef %8, ptr noundef nonnull %2, ptr noundef nonnull %3)
  %10 = icmp sgt i32 %9, 0
  br i1 %10, label %11, label %23

11:                                               ; preds = %.preheader.preheader
  %12 = call i32 @select(i32 noundef %9, ptr noundef nonnull %2, ptr noundef nonnull %3, ptr noundef null, ptr noundef nonnull %4)
  %13 = icmp eq i32 %12, -1
  br i1 %13, label %14, label %21

14:                                               ; preds = %11
  %15 = tail call ptr @__errno_location() #25
  %16 = load i32, ptr %15, align 4
  %.not = icmp eq i32 %16, 4
  br i1 %.not, label %.loopexit, label %17

17:                                               ; preds = %14
  %18 = load ptr, ptr @stderr, align 8
  %19 = call ptr @g_strerror(i32 noundef %16) #25
  %20 = call i32 (ptr, i32, ptr, ...) @__fprintf_chk(ptr noundef %18, i32 noundef 2, ptr noundef nonnull @.str.53, ptr noundef %19)
  br label %.loopexit

21:                                               ; preds = %11
  %22 = load ptr, ptr @ghba_chan, align 8
  call void @ares_process(ptr noundef %22, ptr noundef nonnull %2, ptr noundef nonnull %3)
  br label %23

23:                                               ; preds = %21, %.preheader.preheader
  %24 = load i8, ptr %0, align 1, !range !16, !noundef !17
  %25 = trunc nuw i8 %24 to i1
  br i1 %25, label %.loopexit, label %.preheader.preheader, !llvm.loop !56

.loopexit:                                        ; preds = %23, %1, %14, %17
  call void @llvm.lifetime.end.p0(i64 16, ptr nonnull %4) #24
  call void @llvm.lifetime.end.p0(i64 128, ptr nonnull %3) #24
  call void @llvm.lifetime.end.p0(i64 128, ptr nonnull %2) #24
  ret void
}